target datalayout = "e-m:e-p270:32:32-p271:32:32-p272:64:64-i64:64-i128:128-f80:128-n8:16:32:64-S128"
target triple = "x86_64-pc-linux-gnu"

; Function Attrs: nounwind uwtable
define i32 @PKCS7_add1_attrib_digest(ptr noundef %0, ptr noundef %1, i32 noundef %2) #0 {
  %4 = alloca i32, align 4
  %5 = alloca ptr, align 8
  %6 = alloca ptr, align 8
  %7 = alloca i32, align 4
  %8 = alloca ptr, align 8
  %9 = alloca i32, align 4
  store ptr %0, ptr %5, align 8, !tbaa !3
  store ptr %1, ptr %6, align 8, !tbaa !23
  store i32 %2, ptr %7, align 4, !tbaa !24
  call void @llvm.lifetime.start.p0(i64 8, ptr %8) #4
  %10 = call ptr @ASN1_OCTET_STRING_new()
  store ptr %10, ptr %8, align 8, !tbaa !10
  %11 = load ptr, ptr %8, align 8, !tbaa !10
  %12 = icmp eq ptr %11, null
  br i1 %12, label %13, label %14

13:                                               ; preds = %3
  store i32 0, ptr %4, align 4
  store i32 1, ptr %9, align 4
  br label %28

14:                                               ; preds = %3
  %15 = load ptr, ptr %8, align 8, !tbaa !10
  %16 = load ptr, ptr %6, align 8, !tbaa !23
  %17 = load i32, ptr %7, align 4, !tbaa !24
  %18 = call i32 @ASN1_STRING_set(ptr noundef %15, ptr noundef %16, i32 noundef %17)
  %19 = icmp ne i32 %18, 0
  br i1 %19, label %20, label %25

20:                                               ; preds = %14
  %21 = load ptr, ptr %5, align 8, !tbaa !3
  %22 = load ptr, ptr %8, align 8, !tbaa !10
  %23 = call i32 @PKCS7_add_signed_attribute(ptr noundef %21, i32 noundef 51, i32 noundef 4, ptr noundef %22)
  %24 = icmp ne i32 %23, 0
  br i1 %24, label %27, label %25

25:                                               ; preds = %20, %14
  %26 = load ptr, ptr %8, align 8, !tbaa !10
  call void @ASN1_OCTET_STRING_free(ptr noundef %26)
  store i32 0, ptr %4, align 4
  store i32 1, ptr %9, align 4
  br label %28

27:                                               ; preds = %20
  store i32 1, ptr %4, align 4
  store i32 1, ptr %9, align 4
  br label %28

28:                                               ; preds = %27, %25, %13
  call void @llvm.lifetime.end.p0(i64 8, ptr %8) #4
  %29 = load i32, ptr %4, align 4
  ret i32 %29
}