; Function Attrs: nounwind uwtable
define range(i32 0, 2) i32 @PKCS7_add1_attrib_digest(ptr noundef %0, ptr noundef %1, i32 noundef %2) local_unnamed_addr #0 {
  %4 = tail call ptr @ASN1_OCTET_STRING_new() #3
  %5 = icmp eq ptr %4, null
  br i1 %5, label %11, label %6

6:                                                ; preds = %3
  %7 = tail call i32 @ASN1_STRING_set(ptr noundef nonnull %4, ptr noundef %1, i32 noundef %2) #3
  %.not = icmp eq i32 %7, 0
  br i1 %.not, label %10, label %8

8:                                                ; preds = %6
  %9 = tail call i32 @PKCS7_add_signed_attribute(ptr noundef %0, i32 noundef 51, i32 noundef 4, ptr noundef nonnull %4) #3
  %.not8 = icmp eq i32 %9, 0
  br i1 %.not8, label %10, label %11

10:                                               ; preds = %8, %6
  tail call void @ASN1_OCTET_STRING_free(ptr noundef nonnull %4) #3
  br label %11

11:                                               ; preds = %8, %3, %10
  %.0 = phi i32 [ 0, %10 ], [ 0, %3 ], [ 1, %8 ]
  ret i32 %.0
}